target datalayout = "e-m:e-p270:32:32-p271:32:32-p272:64:64-i64:64-i128:128-f80:128-n8:16:32:64-S128"
target triple = "x86_64-pc-linux-gnu"

%struct.FFHWBaseEncodePicture = type { ptr, ptr, ptr, i64, i64, i64, i64, i32, ptr, ptr, i32, i32, i32, i32, ptr, ptr, i32, i32, [16 x ptr], [2 x i32], [2 x [2 x ptr]], ptr, [2 x i32], [2 x i32] }
%struct.VAAPIEncodePicture = type { ptr, i32, i32, i32, ptr, ptr, i32, ptr, i32, ptr, i32, [1024 x i8], i64 }
%struct.VAAPIEncodeSlice = type { i32, i32, i32, i32, i32, ptr }

@.str.10 = private unnamed_addr constant [30 x i8] c"Assertion %s failed at %s:%d\0A\00", align 1
@.str.12 = private unnamed_addr constant [26 x i8] c"libavcodec/vaapi_encode.c\00", align 1
@.str.164 = private unnamed_addr constant [34 x i8] c"priv->output_buffer == 0xffffffff\00", align 1
@.str.165 = private unnamed_addr constant [33 x i8] c"Discard output for pic %ld/%ld.\0A\00", align 1

; Function Attrs: nounwind uwtable
define internal i32 @vaapi_encode_discard(ptr noundef %0, ptr noundef %1) #0 {
  %3 = alloca ptr, align 8
  %4 = alloca ptr, align 8
  %5 = alloca ptr, align 8
  store ptr %0, ptr %3, align 8, !tbaa !4
  store ptr %1, ptr %4, align 8, !tbaa !229
  call void @llvm.lifetime.start.p0(i64 8, ptr %5) #10
  %6 = load ptr, ptr %4, align 8, !tbaa !229
  %7 = getelementptr inbounds nuw %struct.FFHWBaseEncodePicture, ptr %6, i32 0, i32 0
  %8 = load ptr, ptr %7, align 8, !tbaa !233
  store ptr %8, ptr %5, align 8, !tbaa !234
  %9 = load ptr, ptr %3, align 8, !tbaa !4
  %10 = load ptr, ptr %4, align 8, !tbaa !229
  %11 = call i32 @vaapi_encode_wait(ptr noundef %9, ptr noundef %10)
  %12 = load ptr, ptr %5, align 8, !tbaa !234
  %13 = getelementptr inbounds nuw %struct.VAAPIEncodePicture, ptr %12, i32 0, i32 5
  %14 = load ptr, ptr %13, align 8, !tbaa !260
  %15 = icmp ne ptr %14, null
  br i1 %15, label %16, label %28

16:                                               ; preds = %2
  %17 = load ptr, ptr %3, align 8, !tbaa !4
  %18 = load ptr, ptr %4, align 8, !tbaa !229
  %19 = getelementptr inbounds nuw %struct.FFHWBaseEncodePicture, ptr %18, i32 0, i32 3
  %20 = load i64, ptr %19, align 8, !tbaa !252
  %21 = load ptr, ptr %4, align 8, !tbaa !229
  %22 = getelementptr inbounds nuw %struct.FFHWBaseEncodePicture, ptr %21, i32 0, i32 4
  %23 = load i64, ptr %22, align 8, !tbaa !253
  call void (ptr, i32, ptr, ...) @av_log(ptr noundef %17, i32 noundef 48, ptr noundef @.str.165, i64 noundef %20, i64 noundef %23)
  %24 = load ptr, ptr %5, align 8, !tbaa !234
  %25 = getelementptr inbounds nuw %struct.VAAPIEncodePicture, ptr %24, i32 0, i32 5
  call void @av_refstruct_unref(ptr noundef %25)
  %26 = load ptr, ptr %5, align 8, !tbaa !234
  %27 = getelementptr inbounds nuw %struct.VAAPIEncodePicture, ptr %26, i32 0, i32 6
  store i32 -1, ptr %27, align 8, !tbaa !243
  br label %28

28:                                               ; preds = %16, %2
  call void @llvm.lifetime.end.p0(i64 8, ptr %5) #10
  ret i32 0
}

; Function Attrs: nounwind uwtable
define internal i32 @vaapi_encode_free(ptr noundef %0, ptr noundef %1) #0 {
  %3 = alloca ptr, align 8
  %4 = alloca ptr, align 8
  %5 = alloca ptr, align 8
  %6 = alloca i32, align 4
  store ptr %0, ptr %3, align 8, !tbaa !4
  store ptr %1, ptr %4, align 8, !tbaa !229
  call void @llvm.lifetime.start.p0(i64 8, ptr %5) #10
  %7 = load ptr, ptr %4, align 8, !tbaa !229
  %8 = getelementptr inbounds nuw %struct.FFHWBaseEncodePicture, ptr %7, i32 0, i32 0
  %9 = load ptr, ptr %8, align 8, !tbaa !233
  store ptr %9, ptr %5, align 8, !tbaa !234
  call void @llvm.lifetime.start.p0(i64 4, ptr %6) #10
  %10 = load ptr, ptr %4, align 8, !tbaa !229
  %11 = getelementptr inbounds nuw %struct.FFHWBaseEncodePicture, ptr %10, i32 0, i32 12
  %12 = load i32, ptr %11, align 8, !tbaa !236
  %13 = icmp ne i32 %12, 0
  br i1 %13, label %14, label %18

14:                                               ; preds = %2
  %15 = load ptr, ptr %3, align 8, !tbaa !4
  %16 = load ptr, ptr %4, align 8, !tbaa !229
  %17 = call i32 @vaapi_encode_discard(ptr noundef %15, ptr noundef %16)
  br label %18

18:                                               ; preds = %14, %2
  %19 = load ptr, ptr %5, align 8, !tbaa !234
  %20 = getelementptr inbounds nuw %struct.VAAPIEncodePicture, ptr %19, i32 0, i32 9
  %21 = load ptr, ptr %20, align 8, !tbaa !237
  %22 = icmp ne ptr %21, null
  br i1 %22, label %23, label %42

23:                                               ; preds = %18
  store i32 0, ptr %6, align 4, !tbaa !37
  br label %24

24:                                               ; preds = %38, %23
  %25 = load i32, ptr %6, align 4, !tbaa !37
  %26 = load ptr, ptr %5, align 8, !tbaa !234
  %27 = getelementptr inbounds nuw %struct.VAAPIEncodePicture, ptr %26, i32 0, i32 8
  %28 = load i32, ptr %27, align 8, !tbaa !241
  %29 = icmp slt i32 %25, %28
  br i1 %29, label %30, label %41

30:                                               ; preds = %24
  %31 = load ptr, ptr %5, align 8, !tbaa !234
  %32 = getelementptr inbounds nuw %struct.VAAPIEncodePicture, ptr %31, i32 0, i32 9
  %33 = load ptr, ptr %32, align 8, !tbaa !237
  %34 = load i32, ptr %6, align 4, !tbaa !37
  %35 = sext i32 %34 to i64
  %36 = getelementptr inbounds %struct.VAAPIEncodeSlice, ptr %33, i64 %35
  %37 = getelementptr inbounds nuw %struct.VAAPIEncodeSlice, ptr %36, i32 0, i32 5
  call void @av_freep(ptr noundef %37)
  br label %38

38:                                               ; preds = %30
  %39 = load i32, ptr %6, align 4, !tbaa !37
  %40 = add nsw i32 %39, 1
  store i32 %40, ptr %6, align 4, !tbaa !37
  br label %24, !llvm.loop !242

41:                                               ; preds = %24
  br label %42

42:                                               ; preds = %41, %18
  %43 = load ptr, ptr %5, align 8, !tbaa !234
  %44 = getelementptr inbounds nuw %struct.VAAPIEncodePicture, ptr %43, i32 0, i32 4
  call void @av_freep(ptr noundef %44)
  %45 = load ptr, ptr %5, align 8, !tbaa !234
  %46 = getelementptr inbounds nuw %struct.VAAPIEncodePicture, ptr %45, i32 0, i32 9
  call void @av_freep(ptr noundef %46)
  br label %47

47:                                               ; preds = %42
  %48 = load ptr, ptr %5, align 8, !tbaa !234
  %49 = getelementptr inbounds nuw %struct.VAAPIEncodePicture, ptr %48, i32 0, i32 6
  %50 = load i32, ptr %49, align 8, !tbaa !243
  %51 = icmp eq i32 %50, -1
  br i1 %51, label %53, label %52

52:                                               ; preds = %47
  call void (ptr, i32, ptr, ...) @av_log(ptr noundef null, i32 noundef 0, ptr noundef @.str.10, ptr noundef @.str.164, ptr noundef @.str.12, i32 noundef 870)
  call void @abort() #12
  unreachable

53:                                               ; preds = %47
  br label %54

54:                                               ; preds = %53
  br label %55

55:                                               ; preds = %54
  %56 = load ptr, ptr %5, align 8, !tbaa !234
  %57 = getelementptr inbounds nuw %struct.VAAPIEncodePicture, ptr %56, i32 0, i32 7
  call void @av_freep(ptr noundef %57)
  %58 = load ptr, ptr %5, align 8, !tbaa !234
  %59 = getelementptr inbounds nuw %struct.VAAPIEncodePicture, ptr %58, i32 0, i32 0
  call void @av_freep(ptr noundef %59)
  call void @llvm.lifetime.end.p0(i64 4, ptr %6) #10
  call void @llvm.lifetime.end.p0(i64 8, ptr %5) #10
  ret i32 0
}