; Function Attrs: nounwind uwtable
define internal noundef i32 @vaapi_encode_free(ptr noundef %0, ptr noundef %1) #0 {
  %3 = load ptr, ptr %1, align 8, !tbaa !194
  %4 = getelementptr inbounds nuw i8, ptr %1, i64 88
  %5 = load i32, ptr %4, align 8, !tbaa !195
  %.not = icmp eq i32 %5, 0
  br i1 %.not, label %vaapi_encode_discard.exit, label %6

6:                                                ; preds = %2
  %7 = tail call fastcc i32 @vaapi_encode_wait(ptr noundef %0, ptr noundef nonnull %1)
  %8 = getelementptr inbounds nuw i8, ptr %3, i64 32
  %9 = load ptr, ptr %8, align 8, !tbaa !196
  %.not.i = icmp eq ptr %9, null
  br i1 %.not.i, label %vaapi_encode_discard.exit, label %10

10:                                               ; preds = %6
  %11 = getelementptr inbounds nuw i8, ptr %1, i64 24
  %12 = load i64, ptr %11, align 8, !tbaa !200
  %13 = getelementptr inbounds nuw i8, ptr %1, i64 32
  %14 = load i64, ptr %13, align 8, !tbaa !201
  tail call void (ptr, i32, ptr, ...) @av_log(ptr noundef %0, i32 noundef 48, ptr noundef nonnull @.str.165, i64 noundef %12, i64 noundef %14) #9
  tail call void @av_refstruct_unref(ptr noundef nonnull %8) #9
  %15 = getelementptr inbounds nuw i8, ptr %3, i64 40
  store i32 -1, ptr %15, align 8, !tbaa !202
  br label %vaapi_encode_discard.exit

vaapi_encode_discard.exit:                        ; preds = %10, %6, %2
  %16 = getelementptr inbounds nuw i8, ptr %3, i64 64
  %17 = load ptr, ptr %16, align 8, !tbaa !203
  %.not14 = icmp eq ptr %17, null
  br i1 %.not14, label %.loopexit, label %.preheader

.preheader:                                       ; preds = %vaapi_encode_discard.exit
  %18 = getelementptr inbounds nuw i8, ptr %3, i64 56
  %19 = load i32, ptr %18, align 8, !tbaa !204
  %20 = icmp sgt i32 %19, 0
  br i1 %20, label %.lr.ph, label %.loopexit

.lr.ph:                                           ; preds = %.preheader, %.lr.ph
  %indvars.iv = phi i64 [ %indvars.iv.next, %.lr.ph ], [ 0, %.preheader ]
  %21 = load ptr, ptr %16, align 8, !tbaa !203
  %22 = getelementptr inbounds nuw %struct.VAAPIEncodeSlice, ptr %21, i64 %indvars.iv, i32 5
  tail call void @av_freep(ptr noundef nonnull %22) #9
  %indvars.iv.next = add nuw nsw i64 %indvars.iv, 1
  %23 = load i32, ptr %18, align 8, !tbaa !204
  %24 = sext i32 %23 to i64
  %25 = icmp slt i64 %indvars.iv.next, %24
  br i1 %25, label %.lr.ph, label %.loopexit, !llvm.loop !205

.loopexit:                                        ; preds = %.lr.ph, %.preheader, %vaapi_encode_discard.exit
  %26 = getelementptr inbounds nuw i8, ptr %3, i64 24
  tail call void @av_freep(ptr noundef nonnull %26) #9
  tail call void @av_freep(ptr noundef nonnull %16) #9
  %27 = getelementptr inbounds nuw i8, ptr %3, i64 40
  %28 = load i32, ptr %27, align 8, !tbaa !202
  %29 = icmp eq i32 %28, -1
  br i1 %29, label %31, label %30

30:                                               ; preds = %.loopexit
  tail call void (ptr, i32, ptr, ...) @av_log(ptr noundef null, i32 noundef 0, ptr noundef nonnull @.str.10, ptr noundef nonnull @.str.164, ptr noundef nonnull @.str.12, i32 noundef 870) #9
  tail call void @abort() #11
  unreachable

31:                                               ; preds = %.loopexit
  %32 = getelementptr inbounds nuw i8, ptr %3, i64 48
  tail call void @av_freep(ptr noundef nonnull %32) #9
  tail call void @av_freep(ptr noundef nonnull %3) #9
  ret i32 0
}